Certificate:
    Data:
        Version: 3 (0x2)
        Serial Number: 2 (0x2)
    Signature Algorithm: sha256WithRSAEncryption
        Issuer: C=FR, ST=Radius, L=Somewhere, O=Example Inc./emailAddress=admin@example.org, CN=Example Certificate Authority
        Validity
            Not Before: Mar  7 20:11:23 2016 GMT
            Not After : May  6 20:11:23 2016 GMT
        Subject: C=FR, ST=Radius, O=Example Inc., CN=user@example.org/emailAddress=user@example.org
        Subject Public Key Info:
            Public Key Algorithm: rsaEncryption
                Public-Key: (2048 bit)
                Modulus:
                    00:db:79:c1:7a:cf:fa:e5:7c:32:23:2f:57:cc:28:
                    f8:68:d1:b6:20:d1:93:45:e0:6c:9b:5d:51:ea:7e:
                    78:25:76:50:38:e9:32:ab:c9:b8:57:d5:7d:11:20:
                    b7:db:24:0d:aa:4b:b7:5b:d2:0e:02:37:07:d0:17:
                    22:3a:c8:78:ed:f1:bd:35:82:c0:34:06:9f:97:fe:
                    f9:57:07:47:88:56:f2:df:e0:04:a1:b6:63:01:d1:
                    af:3e:4f:82:c0:3e:0c:b0:78:52:69:83:51:f7:71:
                    dc:d6:43:ba:b0:fa:13:34:19:b4:08:d3:24:2a:e0:
                    99:6a:fc:e9:73:46:ec:2b:b5:05:f9:17:11:b3:ea:
                    62:5b:d7:9e:b9:db:64:e7:30:fb:ae:5a:fd:fe:c7:
                    d8:a2:0c:97:eb:f7:0d:f1:ec:15:07:ff:ce:53:d7:
                    da:54:5e:ee:9b:5a:cf:fd:3e:fa:dd:cb:a0:02:9d:
                    82:dd:9d:65:e5:71:bc:55:bb:b5:af:67:2b:d6:64:
                    3c:46:a1:d3:82:af:69:83:67:33:f8:48:53:bd:eb:
                    14:7a:8f:9c:03:97:c3:d0:15:49:dd:7e:d8:0f:ff:
                    e3:67:05:31:03:4b:c8:fb:d1:49:be:4b:36:27:ea:
                    f0:f8:fb:4c:96:0c:ec:59:0d:12:3b:d2:bc:1a:fb:
                    29:53
                Exponent: 65537 (0x10001)
        X509v3 extensions:
            X509v3 Extended Key Usage: 
                TLS Web Client Authentication
            X509v3 CRL Distribution Points: 

                Full Name:
                  URI:http://www.example.com/example_ca.crl

    Signature Algorithm: sha256WithRSAEncryption
         27:4b:01:20:14:49:be:48:0f:9d:ac:de:f2:05:04:c3:0e:0f:
         77:f1:55:b3:be:fa:37:06:dc:8f:b6:3b:26:80:c7:52:b3:d6:
         28:c6:8a:dc:e8:7f:54:52:b1:b7:bd:0a:30:d6:df:dd:b8:fc:
         e2:78:90:9e:b1:78:05:e5:8a:56:03:08:60:00:44:1f:e7:3b:
         8c:d6:2f:ee:27:56:5a:71:f2:17:96:69:43:c1:00:40:e9:8e:
         e8:31:1f:0a:75:cb:fa:57:a4:e9:dd:f1:a4:08:64:06:fd:f7:
         c1:36:c1:94:e0:b9:b9:15:92:d3:2e:84:5c:b9:97:c0:3d:fd:
         a2:28:39:35:80:57:06:34:2a:62:d7:7d:25:08:b7:c4:35:b9:
         d2:5a:78:15:36:83:46:98:3c:8a:41:80:9e:95:f9:51:ec:b8:
         cf:3e:bf:c7:69:4e:bf:d9:68:3e:25:3e:be:d8:60:a5:fd:01:
         f3:99:6d:0c:85:32:64:5c:bf:8b:eb:cf:1d:1c:1e:66:e5:fb:
         30:68:36:97:87:88:71:42:96:18:20:9f:94:bf:7b:ff:75:54:
         4c:9c:07:26:28:b3:b3:33:65:71:eb:17:cf:a8:0b:b7:24:42:
         05:af:ba:10:b1:32:8d:cb:5e:42:86:dd:02:31:52:67:04:a9:
         98:18:02:90
-----BEGIN CERTIFICATE-----
MIIDzzCCAregAwIBAgIBAjANBgkqhkiG9w0BAQsFADCBkzELMAkGA1UEBhMCRlIx
DzANBgNVBAgTBlJhZGl1czESMBAGA1UEBxMJU29tZXdoZXJlMRUwEwYDVQQKEwxF
eGFtcGxlIEluYy4xIDAeBgkqhkiG9w0BCQEWEWFkbWluQGV4YW1wbGUub3JnMSYw
JAYDVQQDEx1FeGFtcGxlIENlcnRpZmljYXRlIEF1dGhvcml0eTAeFw0xNjAzMDcy
MDExMjNaFw0xNjA1MDYyMDExMjNaMHExCzAJBgNVBAYTAkZSMQ8wDQYDVQQIEwZS
YWRpdXMxFTATBgNVBAoTDEV4YW1wbGUgSW5jLjEZMBcGA1UEAxQQdXNlckBleGFt
cGxlLm9yZzEfMB0GCSqGSIb3DQEJARYQdXNlckBleGFtcGxlLm9yZzCCASIwDQYJ
KoZIhvcNAQEBBQADggEPADCCAQoCggEBANt5wXrP+uV8MiMvV8wo+GjRtiDRk0Xg
bJtdUep+eCV2UDjpMqvJuFfVfREgt9skDapLt1vSDgI3B9AXIjrIeO3xvTWCwDQG
n5f++VcHR4hW8t/gBKG2YwHRrz5PgsA+DLB4UmmDUfdx3NZDurD6EzQZtAjTJCrg
mWr86XNG7Cu1BfkXEbPqYlvXnrnbZOcw+65a/f7H2KIMl+v3DfHsFQf/zlPX2lRe
7ptaz/0++t3LoAKdgt2dZeVxvFW7ta9nK9ZkPEah04KvaYNnM/hIU73rFHqPnAOX
w9AVSd1+2A//42cFMQNLyPvRSb5LNifq8Pj7TJYM7FkNEjvSvBr7KVMCAwEAAaNP
ME0wEwYDVR0lBAwwCgYIKwYBBQUHAwIwNgYDVR0fBC8wLTAroCmgJ4YlaHR0cDov
L3d3dy5leGFtcGxlLmNvbS9leGFtcGxlX2NhLmNybDANBgkqhkiG9w0BAQsFAAOC
AQEAJ0sBIBRJvkgPnaze8gUEww4Pd/FVs776Nwbcj7Y7JoDHUrPWKMaK3Oh/VFKx
t70KMNbf3bj84niQnrF4BeWKVgMIYABEH+c7jNYv7idWWnHyF5ZpQ8EAQOmO6DEf
CnXL+lek6d3xpAhkBv33wTbBlOC5uRWS0y6EXLmXwD39oig5NYBXBjQqYtd9JQi3
xDW50lp4FTaDRpg8ikGAnpX5Uey4zz6/x2lOv9loPiU+vthgpf0B85ltDIUyZFy/
i+vPHRweZuX7MGg2l4eIcUKWGCCflL97/3VUTJwHJiizszNlcesXz6gLtyRCBa+6
ELEyjcteQobdAjFSZwSpmBgCkA==
-----END CERTIFICATE-----
